target datalayout = "e-m:e-p270:32:32-p271:32:32-p272:64:64-i64:64-i128:128-f80:128-n8:16:32:64-S128"
target triple = "x86_64-pc-linux-gnu"

%struct.TestSourceContext = type { ptr, i32, i32, i32, i32, i32, %struct.AVRational, %struct.AVRational, i64, i64, %struct.AVRational, i32, i32, ptr, ptr, i32, i32, [4 x i8], i32, %struct.FFDrawContext, %struct.FFDrawColor, [4 x i8], [4 x i8], i32, i32, i32, i32, i32, i32, i32, i32, i32, i32, i32, i32, i32, i32, i32, i32, i32, i32, i32, ptr, ptr }
%struct.AVRational = type { i32, i32 }
%struct.FFDrawContext = type { ptr, i32, i32, [4 x i32], [4 x i8], [4 x i8], i8, i8, i32, i32, i32, [3 x [3 x double]] }
%struct.FFDrawColor = type { [4 x i8], [4 x %union.anon.2] }
%union.anon.2 = type { [4 x i32] }
%struct.AVChannelLayout = type { i32, i32, %union.anon.1, ptr }
%union.anon.1 = type { i64 }
%struct.AVFrame = type { [8 x ptr], [8 x i32], ptr, i32, i32, i32, i32, i32, %struct.AVRational, i64, i64, %struct.AVRational, i32, ptr, i32, i32, [8 x ptr], ptr, i32, ptr, i32, i32, i32, i32, i32, i32, i32, i64, ptr, i32, ptr, ptr, i64, i64, i64, i64, ptr, %struct.AVChannelLayout, i64 }
%struct.AVPixFmtDescriptor = type { ptr, i8, i8, i8, i64, [4 x %struct.AVComponentDescriptor], ptr }
%struct.AVComponentDescriptor = type { i32, i32, i32, i32, i32 }

@.str.56 = private unnamed_addr constant [30 x i8] c"Assertion %s failed at %s:%d\0A\00", align 1
@.str.58 = private unnamed_addr constant [27 x i8] c"libavfilter/vsrc_testsrc.c\00", align 1
@.str.81 = private unnamed_addr constant [17 x i8] c"x + w <= test->w\00", align 1
@.str.82 = private unnamed_addr constant [17 x i8] c"y + h <= test->h\00", align 1

; Function Attrs: nounwind uwtable
define internal void @draw_bar(ptr noundef %0, ptr noundef %1, i32 noundef %2, i32 noundef %3, i32 noundef %4, i32 noundef %5, ptr noundef %6) #1 {
  %8 = alloca ptr, align 8
  %9 = alloca ptr, align 8
  %10 = alloca i32, align 4
  %11 = alloca i32, align 4
  %12 = alloca i32, align 4
  %13 = alloca i32, align 4
  %14 = alloca ptr, align 8
  %15 = alloca ptr, align 8
  %16 = alloca ptr, align 8
  %17 = alloca ptr, align 8
  %18 = alloca i32, align 4
  %19 = alloca i32, align 4
  %20 = alloca i64, align 8
  %21 = alloca i32, align 4
  %22 = alloca i32, align 4
  %23 = alloca i32, align 4
  %24 = alloca i32, align 4
  %25 = alloca i32, align 4
  store ptr %0, ptr %8, align 8, !tbaa !22
  store ptr %1, ptr %9, align 8, !tbaa !35
  store i32 %2, ptr %10, align 4, !tbaa !36
  store i32 %3, ptr %11, align 4, !tbaa !36
  store i32 %4, ptr %12, align 4, !tbaa !36
  store i32 %5, ptr %13, align 4, !tbaa !36
  store ptr %6, ptr %14, align 8, !tbaa !55
  call void @llvm.lifetime.start.p0(i64 8, ptr %15) #15
  %26 = load ptr, ptr %14, align 8, !tbaa !55
  %27 = getelementptr inbounds nuw %struct.AVFrame, ptr %26, i32 0, i32 6
  %28 = load i32, ptr %27, align 4, !tbaa !89
  %29 = call ptr @av_pix_fmt_desc_get(i32 noundef %28)
  store ptr %29, ptr %15, align 8, !tbaa !90
  call void @llvm.lifetime.start.p0(i64 8, ptr %16) #15
  call void @llvm.lifetime.start.p0(i64 8, ptr %17) #15
  call void @llvm.lifetime.start.p0(i64 4, ptr %18) #15
  %30 = load i32, ptr %10, align 4, !tbaa !36
  %31 = load ptr, ptr %8, align 8, !tbaa !22
  %32 = getelementptr inbounds nuw %struct.TestSourceContext, ptr %31, i32 0, i32 1
  %33 = load i32, ptr %32, align 8, !tbaa !46
  %34 = sub nsw i32 %33, 1
  %35 = icmp sgt i32 %30, %34
  br i1 %35, label %36, label %41

36:                                               ; preds = %7
  %37 = load ptr, ptr %8, align 8, !tbaa !22
  %38 = getelementptr inbounds nuw %struct.TestSourceContext, ptr %37, i32 0, i32 1
  %39 = load i32, ptr %38, align 8, !tbaa !46
  %40 = sub nsw i32 %39, 1
  br label %43

41:                                               ; preds = %7
  %42 = load i32, ptr %10, align 4, !tbaa !36
  br label %43

43:                                               ; preds = %41, %36
  %44 = phi i32 [ %40, %36 ], [ %42, %41 ]
  store i32 %44, ptr %10, align 4, !tbaa !36
  %45 = load i32, ptr %11, align 4, !tbaa !36
  %46 = load ptr, ptr %8, align 8, !tbaa !22
  %47 = getelementptr inbounds nuw %struct.TestSourceContext, ptr %46, i32 0, i32 2
  %48 = load i32, ptr %47, align 4, !tbaa !47
  %49 = sub nsw i32 %48, 1
  %50 = icmp sgt i32 %45, %49
  br i1 %50, label %51, label %56

51:                                               ; preds = %43
  %52 = load ptr, ptr %8, align 8, !tbaa !22
  %53 = getelementptr inbounds nuw %struct.TestSourceContext, ptr %52, i32 0, i32 2
  %54 = load i32, ptr %53, align 4, !tbaa !47
  %55 = sub nsw i32 %54, 1
  br label %58

56:                                               ; preds = %43
  %57 = load i32, ptr %11, align 4, !tbaa !36
  br label %58

58:                                               ; preds = %56, %51
  %59 = phi i32 [ %55, %51 ], [ %57, %56 ]
  store i32 %59, ptr %11, align 4, !tbaa !36
  %60 = load i32, ptr %12, align 4, !tbaa !36
  %61 = load ptr, ptr %8, align 8, !tbaa !22
  %62 = getelementptr inbounds nuw %struct.TestSourceContext, ptr %61, i32 0, i32 1
  %63 = load i32, ptr %62, align 8, !tbaa !46
  %64 = load i32, ptr %10, align 4, !tbaa !36
  %65 = sub nsw i32 %63, %64
  %66 = icmp sgt i32 %60, %65
  br i1 %66, label %67, label %73

67:                                               ; preds = %58
  %68 = load ptr, ptr %8, align 8, !tbaa !22
  %69 = getelementptr inbounds nuw %struct.TestSourceContext, ptr %68, i32 0, i32 1
  %70 = load i32, ptr %69, align 8, !tbaa !46
  %71 = load i32, ptr %10, align 4, !tbaa !36
  %72 = sub nsw i32 %70, %71
  br label %75

73:                                               ; preds = %58
  %74 = load i32, ptr %12, align 4, !tbaa !36
  br label %75

75:                                               ; preds = %73, %67
  %76 = phi i32 [ %72, %67 ], [ %74, %73 ]
  %77 = icmp sgt i32 %76, 0
  br i1 %77, label %78, label %96

78:                                               ; preds = %75
  %79 = load i32, ptr %12, align 4, !tbaa !36
  %80 = load ptr, ptr %8, align 8, !tbaa !22
  %81 = getelementptr inbounds nuw %struct.TestSourceContext, ptr %80, i32 0, i32 1
  %82 = load i32, ptr %81, align 8, !tbaa !46
  %83 = load i32, ptr %10, align 4, !tbaa !36
  %84 = sub nsw i32 %82, %83
  %85 = icmp sgt i32 %79, %84
  br i1 %85, label %86, label %92

86:                                               ; preds = %78
  %87 = load ptr, ptr %8, align 8, !tbaa !22
  %88 = getelementptr inbounds nuw %struct.TestSourceContext, ptr %87, i32 0, i32 1
  %89 = load i32, ptr %88, align 8, !tbaa !46
  %90 = load i32, ptr %10, align 4, !tbaa !36
  %91 = sub nsw i32 %89, %90
  br label %94

92:                                               ; preds = %78
  %93 = load i32, ptr %12, align 4, !tbaa !36
  br label %94

94:                                               ; preds = %92, %86
  %95 = phi i32 [ %91, %86 ], [ %93, %92 ]
  br label %97

96:                                               ; preds = %75
  br label %97

97:                                               ; preds = %96, %94
  %98 = phi i32 [ %95, %94 ], [ 0, %96 ]
  store i32 %98, ptr %12, align 4, !tbaa !36
  %99 = load i32, ptr %13, align 4, !tbaa !36
  %100 = load ptr, ptr %8, align 8, !tbaa !22
  %101 = getelementptr inbounds nuw %struct.TestSourceContext, ptr %100, i32 0, i32 2
  %102 = load i32, ptr %101, align 4, !tbaa !47
  %103 = load i32, ptr %11, align 4, !tbaa !36
  %104 = sub nsw i32 %102, %103
  %105 = icmp sgt i32 %99, %104
  br i1 %105, label %106, label %112

106:                                              ; preds = %97
  %107 = load ptr, ptr %8, align 8, !tbaa !22
  %108 = getelementptr inbounds nuw %struct.TestSourceContext, ptr %107, i32 0, i32 2
  %109 = load i32, ptr %108, align 4, !tbaa !47
  %110 = load i32, ptr %11, align 4, !tbaa !36
  %111 = sub nsw i32 %109, %110
  br label %114

112:                                              ; preds = %97
  %113 = load i32, ptr %13, align 4, !tbaa !36
  br label %114

114:                                              ; preds = %112, %106
  %115 = phi i32 [ %111, %106 ], [ %113, %112 ]
  %116 = icmp sgt i32 %115, 0
  br i1 %116, label %117, label %135

117:                                              ; preds = %114
  %118 = load i32, ptr %13, align 4, !tbaa !36
  %119 = load ptr, ptr %8, align 8, !tbaa !22
  %120 = getelementptr inbounds nuw %struct.TestSourceContext, ptr %119, i32 0, i32 2
  %121 = load i32, ptr %120, align 4, !tbaa !47
  %122 = load i32, ptr %11, align 4, !tbaa !36
  %123 = sub nsw i32 %121, %122
  %124 = icmp sgt i32 %118, %123
  br i1 %124, label %125, label %131

125:                                              ; preds = %117
  %126 = load ptr, ptr %8, align 8, !tbaa !22
  %127 = getelementptr inbounds nuw %struct.TestSourceContext, ptr %126, i32 0, i32 2
  %128 = load i32, ptr %127, align 4, !tbaa !47
  %129 = load i32, ptr %11, align 4, !tbaa !36
  %130 = sub nsw i32 %128, %129
  br label %133

131:                                              ; preds = %117
  %132 = load i32, ptr %13, align 4, !tbaa !36
  br label %133

133:                                              ; preds = %131, %125
  %134 = phi i32 [ %130, %125 ], [ %132, %131 ]
  br label %136

135:                                              ; preds = %114
  br label %136

136:                                              ; preds = %135, %133
  %137 = phi i32 [ %134, %133 ], [ 0, %135 ]
  store i32 %137, ptr %13, align 4, !tbaa !36
  br label %138

138:                                              ; preds = %136
  %139 = load i32, ptr %10, align 4, !tbaa !36
  %140 = load i32, ptr %12, align 4, !tbaa !36
  %141 = add nsw i32 %139, %140
  %142 = load ptr, ptr %8, align 8, !tbaa !22
  %143 = getelementptr inbounds nuw %struct.TestSourceContext, ptr %142, i32 0, i32 1
  %144 = load i32, ptr %143, align 8, !tbaa !46
  %145 = icmp sle i32 %141, %144
  br i1 %145, label %147, label %146

146:                                              ; preds = %138
  call void (ptr, i32, ptr, ...) @av_log(ptr noundef null, i32 noundef 0, ptr noundef @.str.56, ptr noundef @.str.81, ptr noundef @.str.58, i32 noundef 1436)
  call void @abort() #19
  unreachable

147:                                              ; preds = %138
  br label %148

148:                                              ; preds = %147
  br label %149

149:                                              ; preds = %148
  br label %150

150:                                              ; preds = %149
  %151 = load i32, ptr %11, align 4, !tbaa !36
  %152 = load i32, ptr %13, align 4, !tbaa !36
  %153 = add nsw i32 %151, %152
  %154 = load ptr, ptr %8, align 8, !tbaa !22
  %155 = getelementptr inbounds nuw %struct.TestSourceContext, ptr %154, i32 0, i32 2
  %156 = load i32, ptr %155, align 4, !tbaa !47
  %157 = icmp sle i32 %153, %156
  br i1 %157, label %159, label %158

158:                                              ; preds = %150
  call void (ptr, i32, ptr, ...) @av_log(ptr noundef null, i32 noundef 0, ptr noundef @.str.56, ptr noundef @.str.82, ptr noundef @.str.58, i32 noundef 1437)
  call void @abort() #19
  unreachable

159:                                              ; preds = %150
  br label %160

160:                                              ; preds = %159
  br label %161

161:                                              ; preds = %160
  store i32 0, ptr %18, align 4, !tbaa !36
  br label %162

162:                                              ; preds = %304, %161
  %163 = load ptr, ptr %14, align 8, !tbaa !55
  %164 = getelementptr inbounds nuw %struct.AVFrame, ptr %163, i32 0, i32 0
  %165 = load i32, ptr %18, align 4, !tbaa !36
  %166 = sext i32 %165 to i64
  %167 = getelementptr inbounds [8 x ptr], ptr %164, i64 0, i64 %166
  %168 = load ptr, ptr %167, align 8, !tbaa !35
  %169 = icmp ne ptr %168, null
  br i1 %169, label %170, label %307

170:                                              ; preds = %162
  call void @llvm.lifetime.start.p0(i64 4, ptr %19) #15
  %171 = load ptr, ptr %9, align 8, !tbaa !35
  %172 = load i32, ptr %18, align 4, !tbaa !36
  %173 = sext i32 %172 to i64
  %174 = getelementptr inbounds i8, ptr %171, i64 %173
  %175 = load i8, ptr %174, align 1, !tbaa !97
  %176 = zext i8 %175 to i32
  store i32 %176, ptr %19, align 4, !tbaa !36
  call void @llvm.lifetime.start.p0(i64 8, ptr %20) #15
  %177 = load ptr, ptr %14, align 8, !tbaa !55
  %178 = getelementptr inbounds nuw %struct.AVFrame, ptr %177, i32 0, i32 1
  %179 = load i32, ptr %18, align 4, !tbaa !36
  %180 = sext i32 %179 to i64
  %181 = getelementptr inbounds [8 x i32], ptr %178, i64 0, i64 %180
  %182 = load i32, ptr %181, align 4, !tbaa !36
  %183 = sext i32 %182 to i64
  store i64 %183, ptr %20, align 8, !tbaa !85
  call void @llvm.lifetime.start.p0(i64 4, ptr %21) #15
  call void @llvm.lifetime.start.p0(i64 4, ptr %22) #15
  call void @llvm.lifetime.start.p0(i64 4, ptr %23) #15
  call void @llvm.lifetime.start.p0(i64 4, ptr %24) #15
  call void @llvm.lifetime.start.p0(i64 4, ptr %25) #15
  %184 = load i32, ptr %18, align 4, !tbaa !36
  %185 = icmp eq i32 %184, 1
  br i1 %185, label %189, label %186

186:                                              ; preds = %170
  %187 = load i32, ptr %18, align 4, !tbaa !36
  %188 = icmp eq i32 %187, 2
  br i1 %188, label %189, label %260

189:                                              ; preds = %186, %170
  %190 = load i32, ptr %10, align 4, !tbaa !36
  %191 = load ptr, ptr %15, align 8, !tbaa !90
  %192 = getelementptr inbounds nuw %struct.AVPixFmtDescriptor, ptr %191, i32 0, i32 2
  %193 = load i8, ptr %192, align 1, !tbaa !147
  %194 = zext i8 %193 to i32
  %195 = ashr i32 %190, %194
  store i32 %195, ptr %22, align 4, !tbaa !36
  %196 = load ptr, ptr %15, align 8, !tbaa !90
  %197 = getelementptr inbounds nuw %struct.AVPixFmtDescriptor, ptr %196, i32 0, i32 2
  %198 = load i8, ptr %197, align 1, !tbaa !147
  %199 = call i1 @llvm.is.constant.i8(i8 %198)
  br i1 %199, label %209, label %200

200:                                              ; preds = %189
  %201 = load i32, ptr %12, align 4, !tbaa !36
  %202 = sub nsw i32 0, %201
  %203 = load ptr, ptr %15, align 8, !tbaa !90
  %204 = getelementptr inbounds nuw %struct.AVPixFmtDescriptor, ptr %203, i32 0, i32 2
  %205 = load i8, ptr %204, align 1, !tbaa !147
  %206 = zext i8 %205 to i32
  %207 = ashr i32 %202, %206
  %208 = sub nsw i32 0, %207
  br label %223

209:                                              ; preds = %189
  %210 = load i32, ptr %12, align 4, !tbaa !36
  %211 = load ptr, ptr %15, align 8, !tbaa !90
  %212 = getelementptr inbounds nuw %struct.AVPixFmtDescriptor, ptr %211, i32 0, i32 2
  %213 = load i8, ptr %212, align 1, !tbaa !147
  %214 = zext i8 %213 to i32
  %215 = shl i32 1, %214
  %216 = add nsw i32 %210, %215
  %217 = sub nsw i32 %216, 1
  %218 = load ptr, ptr %15, align 8, !tbaa !90
  %219 = getelementptr inbounds nuw %struct.AVPixFmtDescriptor, ptr %218, i32 0, i32 2
  %220 = load i8, ptr %219, align 1, !tbaa !147
  %221 = zext i8 %220 to i32
  %222 = ashr i32 %217, %221
  br label %223

223:                                              ; preds = %209, %200
  %224 = phi i32 [ %208, %200 ], [ %222, %209 ]
  store i32 %224, ptr %24, align 4, !tbaa !36
  %225 = load i32, ptr %11, align 4, !tbaa !36
  %226 = load ptr, ptr %15, align 8, !tbaa !90
  %227 = getelementptr inbounds nuw %struct.AVPixFmtDescriptor, ptr %226, i32 0, i32 3
  %228 = load i8, ptr %227, align 2, !tbaa !149
  %229 = zext i8 %228 to i32
  %230 = ashr i32 %225, %229
  store i32 %230, ptr %23, align 4, !tbaa !36
  %231 = load ptr, ptr %15, align 8, !tbaa !90
  %232 = getelementptr inbounds nuw %struct.AVPixFmtDescriptor, ptr %231, i32 0, i32 3
  %233 = load i8, ptr %232, align 2, !tbaa !149
  %234 = call i1 @llvm.is.constant.i8(i8 %233)
  br i1 %234, label %244, label %235

235:                                              ; preds = %223
  %236 = load i32, ptr %13, align 4, !tbaa !36
  %237 = sub nsw i32 0, %236
  %238 = load ptr, ptr %15, align 8, !tbaa !90
  %239 = getelementptr inbounds nuw %struct.AVPixFmtDescriptor, ptr %238, i32 0, i32 3
  %240 = load i8, ptr %239, align 2, !tbaa !149
  %241 = zext i8 %240 to i32
  %242 = ashr i32 %237, %241
  %243 = sub nsw i32 0, %242
  br label %258

244:                                              ; preds = %223
  %245 = load i32, ptr %13, align 4, !tbaa !36
  %246 = load ptr, ptr %15, align 8, !tbaa !90
  %247 = getelementptr inbounds nuw %struct.AVPixFmtDescriptor, ptr %246, i32 0, i32 3
  %248 = load i8, ptr %247, align 2, !tbaa !149
  %249 = zext i8 %248 to i32
  %250 = shl i32 1, %249
  %251 = add nsw i32 %245, %250
  %252 = sub nsw i32 %251, 1
  %253 = load ptr, ptr %15, align 8, !tbaa !90
  %254 = getelementptr inbounds nuw %struct.AVPixFmtDescriptor, ptr %253, i32 0, i32 3
  %255 = load i8, ptr %254, align 2, !tbaa !149
  %256 = zext i8 %255 to i32
  %257 = ashr i32 %252, %256
  br label %258

258:                                              ; preds = %244, %235
  %259 = phi i32 [ %243, %235 ], [ %257, %244 ]
  store i32 %259, ptr %25, align 4, !tbaa !36
  br label %265

260:                                              ; preds = %186
  %261 = load i32, ptr %10, align 4, !tbaa !36
  store i32 %261, ptr %22, align 4, !tbaa !36
  %262 = load i32, ptr %12, align 4, !tbaa !36
  store i32 %262, ptr %24, align 4, !tbaa !36
  %263 = load i32, ptr %11, align 4, !tbaa !36
  store i32 %263, ptr %23, align 4, !tbaa !36
  %264 = load i32, ptr %13, align 4, !tbaa !36
  store i32 %264, ptr %25, align 4, !tbaa !36
  br label %265

265:                                              ; preds = %260, %258
  %266 = load ptr, ptr %14, align 8, !tbaa !55
  %267 = getelementptr inbounds nuw %struct.AVFrame, ptr %266, i32 0, i32 0
  %268 = load i32, ptr %18, align 4, !tbaa !36
  %269 = sext i32 %268 to i64
  %270 = getelementptr inbounds [8 x ptr], ptr %267, i64 0, i64 %269
  %271 = load ptr, ptr %270, align 8, !tbaa !35
  %272 = load i32, ptr %23, align 4, !tbaa !36
  %273 = sext i32 %272 to i64
  %274 = load i64, ptr %20, align 8, !tbaa !85
  %275 = mul nsw i64 %273, %274
  %276 = getelementptr inbounds i8, ptr %271, i64 %275
  %277 = load i32, ptr %22, align 4, !tbaa !36
  %278 = sext i32 %277 to i64
  %279 = getelementptr inbounds i8, ptr %276, i64 %278
  store ptr %279, ptr %16, align 8, !tbaa !35
  store ptr %279, ptr %17, align 8, !tbaa !35
  %280 = load ptr, ptr %16, align 8, !tbaa !35
  %281 = load i32, ptr %19, align 4, !tbaa !36
  %282 = trunc i32 %281 to i8
  %283 = load i32, ptr %24, align 4, !tbaa !36
  %284 = sext i32 %283 to i64
  call void @llvm.memset.p0.i64(ptr align 1 %280, i8 %282, i64 %284, i1 false)
  %285 = load i64, ptr %20, align 8, !tbaa !85
  %286 = load ptr, ptr %16, align 8, !tbaa !35
  %287 = getelementptr inbounds i8, ptr %286, i64 %285
  store ptr %287, ptr %16, align 8, !tbaa !35
  store i32 1, ptr %21, align 4, !tbaa !36
  br label %288

288:                                              ; preds = %297, %265
  %289 = load i32, ptr %21, align 4, !tbaa !36
  %290 = load i32, ptr %25, align 4, !tbaa !36
  %291 = icmp slt i32 %289, %290
  br i1 %291, label %292, label %303

292:                                              ; preds = %288
  %293 = load ptr, ptr %16, align 8, !tbaa !35
  %294 = load ptr, ptr %17, align 8, !tbaa !35
  %295 = load i32, ptr %24, align 4, !tbaa !36
  %296 = sext i32 %295 to i64
  call void @llvm.memcpy.p0.p0.i64(ptr align 1 %293, ptr align 1 %294, i64 %296, i1 false)
  br label %297

297:                                              ; preds = %292
  %298 = load i32, ptr %21, align 4, !tbaa !36
  %299 = add nsw i32 %298, 1
  store i32 %299, ptr %21, align 4, !tbaa !36
  %300 = load i64, ptr %20, align 8, !tbaa !85
  %301 = load ptr, ptr %16, align 8, !tbaa !35
  %302 = getelementptr inbounds i8, ptr %301, i64 %300
  store ptr %302, ptr %16, align 8, !tbaa !35
  br label %288, !llvm.loop !150

303:                                              ; preds = %288
  call void @llvm.lifetime.end.p0(i64 4, ptr %25) #15
  call void @llvm.lifetime.end.p0(i64 4, ptr %24) #15
  call void @llvm.lifetime.end.p0(i64 4, ptr %23) #15
  call void @llvm.lifetime.end.p0(i64 4, ptr %22) #15
  call void @llvm.lifetime.end.p0(i64 4, ptr %21) #15
  call void @llvm.lifetime.end.p0(i64 8, ptr %20) #15
  call void @llvm.lifetime.end.p0(i64 4, ptr %19) #15
  br label %304

304:                                              ; preds = %303
  %305 = load i32, ptr %18, align 4, !tbaa !36
  %306 = add nsw i32 %305, 1
  store i32 %306, ptr %18, align 4, !tbaa !36
  br label %162, !llvm.loop !151

307:                                              ; preds = %162
  call void @llvm.lifetime.end.p0(i64 4, ptr %18) #15
  call void @llvm.lifetime.end.p0(i64 8, ptr %17) #15
  call void @llvm.lifetime.end.p0(i64 8, ptr %16) #15
  call void @llvm.lifetime.end.p0(i64 8, ptr %15) #15
  ret void
}