; Function Attrs: nounwind uwtable
define internal fastcc void @draw_bar(ptr noundef readonly captures(none) %0, ptr noundef readonly captures(none) %1, i32 noundef %2, i32 noundef %3, i32 noundef %4, i32 noundef %5, ptr noundef readonly captures(none) %6) unnamed_addr #1 {
  %8 = getelementptr inbounds nuw i8, ptr %6, i64 116
  %9 = load i32, ptr %8, align 4, !tbaa !71
  %10 = tail call ptr @av_pix_fmt_desc_get(i32 noundef %9) #20
  %11 = getelementptr inbounds nuw i8, ptr %0, i64 8
  %12 = load i32, ptr %11, align 8, !tbaa !36
  %.not = icmp slt i32 %2, %12
  %13 = add nsw i32 %12, -1
  %14 = select i1 %.not, i32 %2, i32 %13
  %15 = getelementptr inbounds nuw i8, ptr %0, i64 12
  %16 = load i32, ptr %15, align 4, !tbaa !37
  %.not103 = icmp slt i32 %3, %16
  %17 = add nsw i32 %16, -1
  %18 = select i1 %.not103, i32 %3, i32 %17
  %19 = sub nsw i32 %12, %14
  %20 = tail call i32 @llvm.smin.i32(i32 %4, i32 %19)
  %spec.select = tail call i32 @llvm.smax.i32(i32 %20, i32 0)
  %21 = sub nsw i32 %16, %18
  %.107 = tail call i32 @llvm.smin.i32(i32 %5, i32 %21)
  %22 = tail call i32 @llvm.smax.i32(i32 %.107, i32 0)
  %23 = add nsw i32 %spec.select, %14
  %.not104 = icmp sgt i32 %23, %12
  br i1 %.not104, label %24, label %25

24:                                               ; preds = %7
  tail call void (ptr, i32, ptr, ...) @av_log(ptr noundef null, i32 noundef 0, ptr noundef nonnull @.str.56, ptr noundef nonnull @.str.81, ptr noundef nonnull @.str.58, i32 noundef 1436) #20
  tail call void @abort() #23
  unreachable

25:                                               ; preds = %7
  %26 = add nsw i32 %22, %18
  %.not105 = icmp sgt i32 %26, %16
  br i1 %.not105, label %33, label %.preheader

.preheader:                                       ; preds = %25
  %27 = load ptr, ptr %6, align 8, !tbaa !69
  %.not106111 = icmp eq ptr %27, null
  br i1 %.not106111, label %._crit_edge114, label %.lr.ph113

.lr.ph113:                                        ; preds = %.preheader
  %28 = getelementptr inbounds nuw i8, ptr %6, i64 64
  %29 = getelementptr inbounds nuw i8, ptr %10, i64 9
  %30 = sub nsw i32 0, %spec.select
  %31 = getelementptr inbounds nuw i8, ptr %10, i64 10
  %32 = sub nsw i32 0, %22
  br label %34

33:                                               ; preds = %25
  tail call void (ptr, i32, ptr, ...) @av_log(ptr noundef null, i32 noundef 0, ptr noundef nonnull @.str.56, ptr noundef nonnull @.str.82, ptr noundef nonnull @.str.58, i32 noundef 1437) #20
  tail call void @abort() #23
  unreachable

34:                                               ; preds = %.lr.ph113, %._crit_edge
  %indvars.iv = phi i64 [ 0, %.lr.ph113 ], [ %indvars.iv.next, %._crit_edge ]
  %35 = phi ptr [ %27, %.lr.ph113 ], [ %64, %._crit_edge ]
  %36 = getelementptr inbounds nuw i8, ptr %1, i64 %indvars.iv
  %37 = load i8, ptr %36, align 1, !tbaa !76
  %38 = getelementptr inbounds nuw [8 x i32], ptr %28, i64 0, i64 %indvars.iv
  %39 = load i32, ptr %38, align 4, !tbaa !70
  %40 = sext i32 %39 to i64
  %41 = trunc i64 %indvars.iv to i32
  %42 = add i32 %41, -1
  %or.cond = icmp ult i32 %42, 2
  br i1 %or.cond, label %43, label %54

43:                                               ; preds = %34
  %44 = load i8, ptr %29, align 1, !tbaa !117
  %45 = zext i8 %44 to i32
  %46 = ashr i32 %14, %45
  %47 = ashr i32 %30, %45
  %48 = sub nsw i32 0, %47
  %49 = load i8, ptr %31, align 2, !tbaa !119
  %50 = zext i8 %49 to i32
  %51 = ashr i32 %18, %50
  %52 = ashr i32 %32, %50
  %53 = sub nsw i32 0, %52
  br label %54

54:                                               ; preds = %34, %43
  %.088 = phi i32 [ %46, %43 ], [ %14, %34 ]
  %.087 = phi i32 [ %51, %43 ], [ %18, %34 ]
  %.086 = phi i32 [ %48, %43 ], [ %spec.select, %34 ]
  %.0 = phi i32 [ %53, %43 ], [ %22, %34 ]
  %55 = sext i32 %.087 to i64
  %56 = mul nsw i64 %55, %40
  %57 = getelementptr inbounds i8, ptr %35, i64 %56
  %58 = sext i32 %.088 to i64
  %59 = getelementptr inbounds i8, ptr %57, i64 %58
  %60 = sext i32 %.086 to i64
  tail call void @llvm.memset.p0.i64(ptr nonnull align 1 %59, i8 %37, i64 %60, i1 false)
  %61 = icmp sgt i32 %.0, 1
  br i1 %61, label %.lr.ph, label %._crit_edge

.lr.ph:                                           ; preds = %54, %.lr.ph
  %.089110 = phi i32 [ %62, %.lr.ph ], [ 1, %54 ]
  %.pn109 = phi ptr [ %.091, %.lr.ph ], [ %59, %54 ]
  %.091 = getelementptr inbounds i8, ptr %.pn109, i64 %40
  tail call void @llvm.memcpy.p0.p0.i64(ptr align 1 %.091, ptr nonnull align 1 %59, i64 %60, i1 false)
  %62 = add nuw nsw i32 %.089110, 1
  %exitcond.not = icmp eq i32 %62, %.0
  br i1 %exitcond.not, label %._crit_edge, label %.lr.ph, !llvm.loop !120

._crit_edge:                                      ; preds = %.lr.ph, %54
  %indvars.iv.next = add nuw nsw i64 %indvars.iv, 1
  %63 = getelementptr inbounds nuw [8 x ptr], ptr %6, i64 0, i64 %indvars.iv.next
  %64 = load ptr, ptr %63, align 8, !tbaa !69
  %.not106 = icmp eq ptr %64, null
  br i1 %.not106, label %._crit_edge114, label %34, !llvm.loop !121

._crit_edge114:                                   ; preds = %._crit_edge, %.preheader
  ret void
}